target datalayout = "e-m:e-p270:32:32-p271:32:32-p272:64:64-i64:64-i128:128-f80:128-n8:16:32:64-S128"
target triple = "x86_64-pc-linux-gnu"

%struct.Curl_URL = type { ptr, ptr, ptr, ptr, ptr, ptr, ptr, ptr, ptr, ptr, i64 }

@Curl_cfree = external global ptr, align 8

; Function Attrs: nounwind uwtable
define internal void @free_urlhandle(ptr noundef %0) #0 {
  %2 = alloca ptr, align 8
  store ptr %0, ptr %2, align 8
  %3 = load ptr, ptr @Curl_cfree, align 8
  %4 = load ptr, ptr %2, align 8
  %5 = getelementptr inbounds %struct.Curl_URL, ptr %4, i32 0, i32 0
  %6 = load ptr, ptr %5, align 8
  call void %3(ptr noundef %6)
  %7 = load ptr, ptr @Curl_cfree, align 8
  %8 = load ptr, ptr %2, align 8
  %9 = getelementptr inbounds %struct.Curl_URL, ptr %8, i32 0, i32 1
  %10 = load ptr, ptr %9, align 8
  call void %7(ptr noundef %10)
  %11 = load ptr, ptr @Curl_cfree, align 8
  %12 = load ptr, ptr %2, align 8
  %13 = getelementptr inbounds %struct.Curl_URL, ptr %12, i32 0, i32 2
  %14 = load ptr, ptr %13, align 8
  call void %11(ptr noundef %14)
  %15 = load ptr, ptr @Curl_cfree, align 8
  %16 = load ptr, ptr %2, align 8
  %17 = getelementptr inbounds %struct.Curl_URL, ptr %16, i32 0, i32 3
  %18 = load ptr, ptr %17, align 8
  call void %15(ptr noundef %18)
  %19 = load ptr, ptr @Curl_cfree, align 8
  %20 = load ptr, ptr %2, align 8
  %21 = getelementptr inbounds %struct.Curl_URL, ptr %20, i32 0, i32 4
  %22 = load ptr, ptr %21, align 8
  call void %19(ptr noundef %22)
  %23 = load ptr, ptr @Curl_cfree, align 8
  %24 = load ptr, ptr %2, align 8
  %25 = getelementptr inbounds %struct.Curl_URL, ptr %24, i32 0, i32 5
  %26 = load ptr, ptr %25, align 8
  call void %23(ptr noundef %26)
  %27 = load ptr, ptr @Curl_cfree, align 8
  %28 = load ptr, ptr %2, align 8
  %29 = getelementptr inbounds %struct.Curl_URL, ptr %28, i32 0, i32 6
  %30 = load ptr, ptr %29, align 8
  call void %27(ptr noundef %30)
  %31 = load ptr, ptr @Curl_cfree, align 8
  %32 = load ptr, ptr %2, align 8
  %33 = getelementptr inbounds %struct.Curl_URL, ptr %32, i32 0, i32 7
  %34 = load ptr, ptr %33, align 8
  call void %31(ptr noundef %34)
  %35 = load ptr, ptr @Curl_cfree, align 8
  %36 = load ptr, ptr %2, align 8
  %37 = getelementptr inbounds %struct.Curl_URL, ptr %36, i32 0, i32 8
  %38 = load ptr, ptr %37, align 8
  call void %35(ptr noundef %38)
  %39 = load ptr, ptr @Curl_cfree, align 8
  %40 = load ptr, ptr %2, align 8
  %41 = getelementptr inbounds %struct.Curl_URL, ptr %40, i32 0, i32 9
  %42 = load ptr, ptr %41, align 8
  call void %39(ptr noundef %42)
  ret void
}

; Function Attrs: nounwind uwtable
define dso_local void @curl_url_cleanup(ptr noundef %0) #0 {
  %2 = alloca ptr, align 8
  store ptr %0, ptr %2, align 8
  %3 = load ptr, ptr %2, align 8
  %4 = icmp ne ptr %3, null
  br i1 %4, label %5, label %9

5:                                                ; preds = %1
  %6 = load ptr, ptr %2, align 8
  call void @free_urlhandle(ptr noundef %6)
  %7 = load ptr, ptr @Curl_cfree, align 8
  %8 = load ptr, ptr %2, align 8
  call void %7(ptr noundef %8)
  br label %9

9:                                                ; preds = %5, %1
  ret void
}