; Function Attrs: nounwind uwtable
define dso_local void @curl_url_cleanup(ptr noundef %0) local_unnamed_addr #0 {
  %.not = icmp eq ptr %0, null
  br i1 %.not, label %33, label %2

2:                                                ; preds = %1
  %3 = load ptr, ptr @Curl_cfree, align 8
  %4 = load ptr, ptr %0, align 8
  tail call void %3(ptr noundef %4) #10
  %5 = load ptr, ptr @Curl_cfree, align 8
  %6 = getelementptr inbounds nuw i8, ptr %0, i64 8
  %7 = load ptr, ptr %6, align 8
  tail call void %5(ptr noundef %7) #10
  %8 = load ptr, ptr @Curl_cfree, align 8
  %9 = getelementptr inbounds nuw i8, ptr %0, i64 16
  %10 = load ptr, ptr %9, align 8
  tail call void %8(ptr noundef %10) #10
  %11 = load ptr, ptr @Curl_cfree, align 8
  %12 = getelementptr inbounds nuw i8, ptr %0, i64 24
  %13 = load ptr, ptr %12, align 8
  tail call void %11(ptr noundef %13) #10
  %14 = load ptr, ptr @Curl_cfree, align 8
  %15 = getelementptr inbounds nuw i8, ptr %0, i64 32
  %16 = load ptr, ptr %15, align 8
  tail call void %14(ptr noundef %16) #10
  %17 = load ptr, ptr @Curl_cfree, align 8
  %18 = getelementptr inbounds nuw i8, ptr %0, i64 40
  %19 = load ptr, ptr %18, align 8
  tail call void %17(ptr noundef %19) #10
  %20 = load ptr, ptr @Curl_cfree, align 8
  %21 = getelementptr inbounds nuw i8, ptr %0, i64 48
  %22 = load ptr, ptr %21, align 8
  tail call void %20(ptr noundef %22) #10
  %23 = load ptr, ptr @Curl_cfree, align 8
  %24 = getelementptr inbounds nuw i8, ptr %0, i64 56
  %25 = load ptr, ptr %24, align 8
  tail call void %23(ptr noundef %25) #10
  %26 = load ptr, ptr @Curl_cfree, align 8
  %27 = getelementptr inbounds nuw i8, ptr %0, i64 64
  %28 = load ptr, ptr %27, align 8
  tail call void %26(ptr noundef %28) #10
  %29 = load ptr, ptr @Curl_cfree, align 8
  %30 = getelementptr inbounds nuw i8, ptr %0, i64 72
  %31 = load ptr, ptr %30, align 8
  tail call void %29(ptr noundef %31) #10
  %32 = load ptr, ptr @Curl_cfree, align 8
  tail call void %32(ptr noundef nonnull %0) #10
  br label %33

33:                                               ; preds = %2, %1
  ret void
}